; Function Attrs: nounwind uwtable
define dso_local range(i32 0, 4) i32 @find_typmod_coercion_function(i32 noundef %0, ptr noundef captures(none) initializes((0, 4)) %1) local_unnamed_addr #0 {
  store i32 0, ptr %1, align 4
  %3 = tail call ptr @typeidType(i32 noundef %0) #5
  %4 = getelementptr i8, ptr %3, i64 16
  %.val22 = load ptr, ptr %4, align 8
  %5 = getelementptr inbounds nuw i8, ptr %.val22, i64 22
  %6 = load i8, ptr %5, align 2
  %7 = zext i8 %6 to i64
  %8 = getelementptr inbounds nuw i8, ptr %.val22, i64 %7
  %9 = getelementptr inbounds nuw i8, ptr %8, i64 92
  %10 = load i32, ptr %9, align 4
  %.not = icmp eq i32 %10, 0
  br i1 %.not, label %15, label %11

11:                                               ; preds = %2
  %12 = getelementptr inbounds nuw i8, ptr %8, i64 88
  %13 = load i32, ptr %12, align 4
  %14 = icmp eq i32 %13, 6179
  %spec.select = select i1 %14, i32 3, i32 1
  %spec.select20 = select i1 %14, i32 %10, i32 %0
  br label %15

15:                                               ; preds = %11, %2
  %.015 = phi i32 [ 1, %2 ], [ %spec.select, %11 ]
  %.0 = phi i32 [ %0, %2 ], [ %spec.select20, %11 ]
  tail call void @ReleaseSysCache(ptr noundef nonnull %3) #5
  %16 = zext i32 %.0 to i64
  %17 = tail call ptr @SearchSysCache2(i32 noundef 12, i64 noundef %16, i64 noundef %16) #5
  %.not18 = icmp eq ptr %17, null
  br i1 %.not18, label %26, label %18

18:                                               ; preds = %15
  %19 = getelementptr i8, ptr %17, i64 16
  %.val = load ptr, ptr %19, align 8
  %20 = getelementptr inbounds nuw i8, ptr %.val, i64 22
  %21 = load i8, ptr %20, align 2
  %22 = zext i8 %21 to i64
  %23 = getelementptr inbounds nuw i8, ptr %.val, i64 %22
  %24 = getelementptr inbounds nuw i8, ptr %23, i64 12
  %25 = load i32, ptr %24, align 4
  store i32 %25, ptr %1, align 4
  tail call void @ReleaseSysCache(ptr noundef nonnull %17) #5
  br label %26

26:                                               ; preds = %18, %15
  %27 = load i32, ptr %1, align 4
  %.not19 = icmp eq i32 %27, 0
  %spec.select21 = select i1 %.not19, i32 0, i32 %.015
  ret i32 %spec.select21
}